target datalayout = "e-m:e-p270:32:32-p271:32:32-p272:64:64-i64:64-i128:128-f80:128-n8:16:32:64-S128"
target triple = "x86_64-pc-linux-gnu"

%struct.pg_regex_t = type { i32, i64, i64, i32, ptr, i32, ptr, ptr }
%struct.guts = type { i32, i32, i64, i64, ptr, %struct.cnfa, i32, %struct.colormap, ptr, ptr, i32 }
%struct.cnfa = type { i32, i32, i32, i32, i32, [2 x i16], [2 x i16], ptr, ptr, ptr, i32, i32 }
%struct.colormap = type { i32, ptr, i64, i64, i16, ptr, ptr, [14 x i32], i32, ptr, ptr, i32, i32, i32, [10 x %struct.colordesc] }
%struct.colordesc = type { i32, i32, i16, ptr, i32, i32 }

; Function Attrs: nounwind uwtable
define dso_local i32 @pg_reg_colorisend(ptr noundef %0, i32 noundef %1) #0 {
  %3 = alloca i32, align 4
  %4 = alloca ptr, align 8
  %5 = alloca i32, align 4
  %6 = alloca ptr, align 8
  %7 = alloca i32, align 4
  store ptr %0, ptr %4, align 8
  store i32 %1, ptr %5, align 4
  call void @llvm.lifetime.start.p0(i64 8, ptr %6) #3
  %8 = load ptr, ptr %4, align 8
  %9 = getelementptr inbounds nuw %struct.pg_regex_t, ptr %8, i32 0, i32 6
  %10 = load ptr, ptr %9, align 8
  %11 = getelementptr inbounds nuw %struct.guts, ptr %10, i32 0, i32 5
  store ptr %11, ptr %6, align 8
  %12 = load i32, ptr %5, align 4
  %13 = load ptr, ptr %6, align 8
  %14 = getelementptr inbounds nuw %struct.cnfa, ptr %13, i32 0, i32 6
  %15 = getelementptr inbounds [2 x i16], ptr %14, i64 0, i64 0
  %16 = load i16, ptr %15, align 8
  %17 = sext i16 %16 to i32
  %18 = icmp eq i32 %12, %17
  br i1 %18, label %27, label %19

19:                                               ; preds = %2
  %20 = load i32, ptr %5, align 4
  %21 = load ptr, ptr %6, align 8
  %22 = getelementptr inbounds nuw %struct.cnfa, ptr %21, i32 0, i32 6
  %23 = getelementptr inbounds [2 x i16], ptr %22, i64 0, i64 1
  %24 = load i16, ptr %23, align 2
  %25 = sext i16 %24 to i32
  %26 = icmp eq i32 %20, %25
  br i1 %26, label %27, label %28

27:                                               ; preds = %19, %2
  store i32 1, ptr %3, align 4
  store i32 1, ptr %7, align 4
  br label %29

28:                                               ; preds = %19
  store i32 0, ptr %3, align 4
  store i32 1, ptr %7, align 4
  br label %29

29:                                               ; preds = %28, %27
  call void @llvm.lifetime.end.p0(i64 8, ptr %6) #3
  %30 = load i32, ptr %3, align 4
  ret i32 %30
}