; Function Attrs: mustprogress nofree norecurse nosync nounwind willreturn memory(read, inaccessiblemem: none) uwtable
define dso_local range(i32 0, 2) i32 @pg_reg_colorisend(ptr noundef readonly captures(none) %0, i32 noundef %1) local_unnamed_addr #0 {
  %3 = getelementptr inbounds nuw i8, ptr %0, i64 48
  %4 = load ptr, ptr %3, align 8
  %5 = getelementptr inbounds nuw i8, ptr %4, i64 56
  %6 = load i16, ptr %5, align 8
  %7 = sext i16 %6 to i32
  %8 = icmp eq i32 %1, %7
  br i1 %8, label %14, label %9

9:                                                ; preds = %2
  %10 = getelementptr inbounds nuw i8, ptr %4, i64 58
  %11 = load i16, ptr %10, align 2
  %12 = sext i16 %11 to i32
  %13 = icmp eq i32 %1, %12
  %spec.select = zext i1 %13 to i32
  br label %14

14:                                               ; preds = %9, %2
  %.0 = phi i32 [ 1, %2 ], [ %spec.select, %9 ]
  ret i32 %.0
}